target datalayout = "e-m:e-p270:32:32-p271:32:32-p272:64:64-i64:64-i128:128-f80:128-n8:16:32:64-S128"
target triple = "x86_64-pc-linux-gnu"

%"class.open3d::core::Dtype" = type { i32, i64, [16 x i8] }
%"struct.std::_Vector_base.377" = type { %"struct.std::_Vector_base<char, std::allocator<char>>::_Vector_impl" }
%"struct.std::_Vector_base<char, std::allocator<char>>::_Vector_impl" = type { %"struct.std::_Vector_base<char, std::allocator<char>>::_Vector_impl_data" }
%"struct.std::_Vector_base<char, std::allocator<char>>::_Vector_impl_data" = type { ptr, ptr, ptr }
%"struct.open3d::t::io::WriteAttributePtr" = type <{ %"class.open3d::core::Dtype", ptr, i32, [4 x i8] }>
%class.anon.430 = type { ptr, ptr, ptr, ptr }

; Function Attrs: mustprogress nounwind ssp uwtable
define linkonce_odr noundef ptr @_ZNKSt6vectorIcSaIcEE11_M_data_ptrIcEEPT_S4_(ptr noundef nonnull align 8 dereferenceable(24) %0, ptr noundef %1) #1 comdat align 2 {
  %3 = alloca ptr, align 8
  %4 = alloca ptr, align 8
  store ptr %0, ptr %3, align 8, !tbaa !1505
  store ptr %1, ptr %4, align 8, !tbaa !160
  %5 = load ptr, ptr %4, align 8, !tbaa !160
  ret ptr %5
}

; Function Attrs: alwaysinline mustprogress nounwind
define internal ptr @memcpy.inline(ptr noalias nonnull %0, ptr noalias nonnull %1, i64 %2) #22 {
  %4 = alloca ptr, align 8
  %5 = alloca ptr, align 8
  %6 = alloca i64, align 8
  store ptr %0, ptr %4, align 8, !tbaa !86
  store ptr %1, ptr %5, align 8, !tbaa !86
  store i64 %2, ptr %6, align 8, !tbaa !30
  %7 = load ptr, ptr %4, align 8, !tbaa !86
  %8 = load ptr, ptr %5, align 8, !tbaa !86
  %9 = load i64, ptr %6, align 8, !tbaa !30
  %10 = load ptr, ptr %4, align 8, !tbaa !86
  %11 = call i64 @llvm.objectsize.i64.p0(ptr %10, i1 false, i1 true, i1 false)
  %12 = call ptr @__memcpy_chk(ptr noundef %7, ptr noundef %8, i64 noundef %9, i64 noundef %11) #7
  ret ptr %12
}

; Function Attrs: mustprogress nounwind ssp uwtable
define linkonce_odr noundef ptr @_ZNSt6vectorIcSaIcEE4dataEv(ptr noundef nonnull align 8 dereferenceable(24) %0) #1 comdat align 2 {
  %2 = alloca ptr, align 8
  store ptr %0, ptr %2, align 8, !tbaa !1505
  %3 = load ptr, ptr %2, align 8
  %4 = getelementptr inbounds nuw %"struct.std::_Vector_base.377", ptr %3, i32 0, i32 0
  %5 = getelementptr inbounds nuw %"struct.std::_Vector_base<char, std::allocator<char>>::_Vector_impl_data", ptr %4, i32 0, i32 0
  %6 = load ptr, ptr %5, align 8, !tbaa !1537
  %7 = call noundef ptr @_ZNKSt6vectorIcSaIcEE11_M_data_ptrIcEEPT_S4_(ptr noundef nonnull align 8 dereferenceable(24) %3, ptr noundef %6) #7
  ret ptr %7
}

; Function Attrs: inlinehint mustprogress nounwind ssp uwtable
define internal void @"_ZZZN6open3d1t2ioL12WritePCDDataEP8_IO_FILERKNS1_9PCDHeaderERKNS0_8geometry10PointCloudERKNS_2io21WritePointCloudOptionEENK3$_2clEvENKUlvE8_clEv"(ptr noundef nonnull align 8 dereferenceable(32) %0) #6 align 2 {
  %2 = alloca ptr, align 8
  %3 = alloca ptr, align 8
  %4 = alloca i32, align 4
  %5 = alloca i32, align 4
  %6 = alloca i64, align 8
  store ptr %0, ptr %2, align 8, !tbaa !86
  %7 = load ptr, ptr %2, align 8
  call void @llvm.lifetime.start.p0(i64 8, ptr %3) #7
  %8 = getelementptr inbounds nuw %class.anon.430, ptr %7, i32 0, i32 0
  %9 = load ptr, ptr %8, align 8, !tbaa !1825
  %10 = getelementptr inbounds nuw %"struct.open3d::t::io::WriteAttributePtr", ptr %9, i32 0, i32 1
  %11 = load ptr, ptr %10, align 8, !tbaa !1556
  store ptr %11, ptr %3, align 8, !tbaa !126
  call void @llvm.lifetime.start.p0(i64 4, ptr %4) #7
  store i32 0, ptr %4, align 4, !tbaa !121
  br label %12

12:                                               ; preds = %60, %1
  %13 = load i32, ptr %4, align 4, !tbaa !121
  %14 = getelementptr inbounds nuw %class.anon.430, ptr %7, i32 0, i32 0
  %15 = load ptr, ptr %14, align 8, !tbaa !1825
  %16 = getelementptr inbounds nuw %"struct.open3d::t::io::WriteAttributePtr", ptr %15, i32 0, i32 2
  %17 = load i32, ptr %16, align 8, !tbaa !1558
  %18 = icmp slt i32 %13, %17
  br i1 %18, label %20, label %19

19:                                               ; preds = %12
  store i32 2, ptr %5, align 4
  call void @llvm.lifetime.end.p0(i64 4, ptr %4) #7
  br label %63

20:                                               ; preds = %12
  call void @llvm.lifetime.start.p0(i64 8, ptr %6) #7
  store i64 0, ptr %6, align 8, !tbaa !30
  br label %21

21:                                               ; preds = %56, %20
  %22 = load i64, ptr %6, align 8, !tbaa !30
  %23 = getelementptr inbounds nuw %class.anon.430, ptr %7, i32 0, i32 1
  %24 = load ptr, ptr %23, align 8, !tbaa !1827
  %25 = load i64, ptr %24, align 8, !tbaa !30
  %26 = icmp slt i64 %22, %25
  br i1 %26, label %28, label %27

27:                                               ; preds = %21
  store i32 5, ptr %5, align 4
  call void @llvm.lifetime.end.p0(i64 8, ptr %6) #7
  br label %59

28:                                               ; preds = %21
  %29 = getelementptr inbounds nuw %class.anon.430, ptr %7, i32 0, i32 2
  %30 = load ptr, ptr %29, align 8, !tbaa !1828
  %31 = call noundef ptr @_ZNSt6vectorIcSaIcEE4dataEv(ptr noundef nonnull align 8 dereferenceable(24) %30) #7
  %32 = getelementptr inbounds nuw %class.anon.430, ptr %7, i32 0, i32 3
  %33 = load ptr, ptr %32, align 8, !tbaa !1829
  %34 = load i32, ptr %33, align 4, !tbaa !121
  %35 = zext i32 %34 to i64
  %36 = getelementptr inbounds nuw i8, ptr %31, i64 %35
  %37 = load ptr, ptr %3, align 8, !tbaa !126
  %38 = load i64, ptr %6, align 8, !tbaa !30
  %39 = getelementptr inbounds nuw %class.anon.430, ptr %7, i32 0, i32 0
  %40 = load ptr, ptr %39, align 8, !tbaa !1825
  %41 = getelementptr inbounds nuw %"struct.open3d::t::io::WriteAttributePtr", ptr %40, i32 0, i32 2
  %42 = load i32, ptr %41, align 8, !tbaa !1558
  %43 = sext i32 %42 to i64
  %44 = mul nsw i64 %38, %43
  %45 = load i32, ptr %4, align 4, !tbaa !121
  %46 = sext i32 %45 to i64
  %47 = add nsw i64 %44, %46
  %48 = getelementptr inbounds i64, ptr %37, i64 %47
  %49 = call ptr @memcpy.inline(ptr noundef %36, ptr noundef %48, i64 noundef 8) #7
  %50 = getelementptr inbounds nuw %class.anon.430, ptr %7, i32 0, i32 3
  %51 = load ptr, ptr %50, align 8, !tbaa !1829
  %52 = load i32, ptr %51, align 4, !tbaa !121
  %53 = zext i32 %52 to i64
  %54 = add i64 %53, 8
  %55 = trunc i64 %54 to i32
  store i32 %55, ptr %51, align 4, !tbaa !121
  br label %56

56:                                               ; preds = %28
  %57 = load i64, ptr %6, align 8, !tbaa !30
  %58 = add nsw i64 %57, 1
  store i64 %58, ptr %6, align 8, !tbaa !30
  br label %21, !llvm.loop !1830

59:                                               ; preds = %27
  br label %60

60:                                               ; preds = %59
  %61 = load i32, ptr %4, align 4, !tbaa !121
  %62 = add nsw i32 %61, 1
  store i32 %62, ptr %4, align 4, !tbaa !121
  br label %12, !llvm.loop !1831

63:                                               ; preds = %19
  call void @llvm.lifetime.end.p0(i64 8, ptr %3) #7
  ret void
}